target datalayout = "e-m:e-p270:32:32-p271:32:32-p272:64:64-i64:64-i128:128-f80:128-n8:16:32:64-S128"
target triple = "x86_64-pc-linux-gnu"

%"class.rocksdb::clock_cache::BaseClockTable.base" = type { %"class.rocksdb::RelaxedAtomic", %"class.rocksdb::RelaxedAtomic", %"class.rocksdb::RelaxedAtomic", [40 x i8], %"class.rocksdb::AcqRelAtomic", %"class.rocksdb::AcqRelAtomic", %"class.rocksdb::AcqRelAtomic", [40 x i8], i32, ptr, ptr, ptr }
%"class.rocksdb::AcqRelAtomic" = type { %"class.rocksdb::RelaxedAtomic" }
%"class.rocksdb::RelaxedAtomic" = type { %"struct.std::atomic" }
%"struct.std::atomic" = type { %"struct.std::__atomic_base" }
%"struct.std::__atomic_base" = type { i64 }
%"class.rocksdb::clock_cache::AutoHyperClockTable" = type { %"class.rocksdb::clock_cache::BaseClockTable.base", %"class.rocksdb::TypedMemMapping", %"class.rocksdb::AcqRelAtomic", %"class.rocksdb::RelaxedAtomic", %"class.rocksdb::RelaxedAtomic", %"class.rocksdb::RelaxedAtomic", [48 x i8] }
%"class.rocksdb::TypedMemMapping" = type { %"class.rocksdb::MemMapping" }
%"class.rocksdb::MemMapping" = type { ptr, i64 }

; Function Attrs: noinline noreturn nounwind uwtable
define linkonce_odr hidden void @__clang_call_terminate(ptr noundef %0) #11 comdat {
  %2 = call ptr @__cxa_begin_catch(ptr %0) #19
  call void @_ZSt9terminatev() #20
  unreachable
}

; Function Attrs: mustprogress nounwind uwtable
define linkonce_odr noundef i32 @_ZStanSt12memory_orderSt23__memory_order_modifier(i32 noundef %0, i32 noundef %1) #1 comdat {
  %3 = alloca i32, align 4
  %4 = alloca i32, align 4
  store i32 %0, ptr %3, align 4, !tbaa !393
  store i32 %1, ptr %4, align 4, !tbaa !486
  %5 = load i32, ptr %3, align 4, !tbaa !393
  %6 = load i32, ptr %4, align 4, !tbaa !486
  %7 = and i32 %5, %6
  ret i32 %7
}

; Function Attrs: alwaysinline mustprogress nounwind uwtable
define linkonce_odr noundef i64 @_ZNKSt13__atomic_baseImE4loadESt12memory_order(ptr noundef nonnull align 8 dereferenceable(8) %0, i32 noundef %1) #13 comdat align 2 personality ptr @__gxx_personality_v0 {
  %3 = alloca ptr, align 8
  %4 = alloca i32, align 4
  %5 = alloca i32, align 4
  %6 = alloca i64, align 8
  store ptr %0, ptr %3, align 8, !tbaa !391
  store i32 %1, ptr %4, align 4, !tbaa !393
  %7 = load ptr, ptr %3, align 8
  call void @llvm.lifetime.start.p0(i64 4, ptr %5) #19
  %8 = load i32, ptr %4, align 4, !tbaa !393
  %9 = invoke noundef i32 @_ZStanSt12memory_orderSt23__memory_order_modifier(i32 noundef %8, i32 noundef 65535)
          to label %10 unwind label %27

10:                                               ; preds = %2
  store i32 %9, ptr %5, align 4, !tbaa !393
  br label %11

11:                                               ; preds = %10
  br label %12

12:                                               ; preds = %11
  br label %13

13:                                               ; preds = %12
  br label %14

14:                                               ; preds = %13
  br label %15

15:                                               ; preds = %14
  br label %16

16:                                               ; preds = %15
  %17 = getelementptr inbounds nuw %"struct.std::__atomic_base", ptr %7, i32 0, i32 0
  %18 = load i32, ptr %4, align 4, !tbaa !393
  switch i32 %18, label %19 [
    i32 1, label %21
    i32 2, label %21
    i32 5, label %23
  ]

19:                                               ; preds = %16
  %20 = load atomic i64, ptr %17 monotonic, align 8
  store i64 %20, ptr %6, align 8
  br label %25

21:                                               ; preds = %16, %16
  %22 = load atomic i64, ptr %17 acquire, align 8
  store i64 %22, ptr %6, align 8
  br label %25

23:                                               ; preds = %16
  %24 = load atomic i64, ptr %17 seq_cst, align 8
  store i64 %24, ptr %6, align 8
  br label %25

25:                                               ; preds = %23, %21, %19
  %26 = load i64, ptr %6, align 8, !tbaa !9
  call void @llvm.lifetime.end.p0(i64 4, ptr %5) #19
  ret i64 %26

27:                                               ; preds = %2
  %28 = landingpad { ptr, i32 }
          catch ptr null
  %29 = extractvalue { ptr, i32 } %28, 0
  call void @__clang_call_terminate(ptr %29) #20
  unreachable
}

; Function Attrs: mustprogress nounwind uwtable
define linkonce_odr noundef i64 @_ZNK7rocksdb13RelaxedAtomicImE11LoadRelaxedEv(ptr noundef nonnull align 8 dereferenceable(8) %0) #1 comdat align 2 {
  %2 = alloca ptr, align 8
  store ptr %0, ptr %2, align 8, !tbaa !32
  %3 = load ptr, ptr %2, align 8
  %4 = getelementptr inbounds nuw %"class.rocksdb::RelaxedAtomic", ptr %3, i32 0, i32 0
  %5 = call noundef i64 @_ZNKSt13__atomic_baseImE4loadESt12memory_order(ptr noundef nonnull align 8 dereferenceable(8) %4, i32 noundef 0) #19
  ret i64 %5
}

; Function Attrs: mustprogress uwtable
define noundef zeroext i1 @_ZN7rocksdb11clock_cache19AutoHyperClockTable12GrowIfNeededEmRNS1_11InsertStateE(ptr noundef nonnull align 64 dereferenceable(208) %0, i64 noundef %1, ptr noundef nonnull align 8 dereferenceable(16) %2) #0 align 2 {
  %4 = alloca i1, align 1
  %5 = alloca ptr, align 8
  %6 = alloca i64, align 8
  %7 = alloca ptr, align 8
  store ptr %0, ptr %5, align 8, !tbaa !121
  store i64 %1, ptr %6, align 8, !tbaa !9
  store ptr %2, ptr %7, align 8, !tbaa !236
  %8 = load ptr, ptr %5, align 8
  br label %9

9:                                                ; preds = %21, %3
  %10 = load i64, ptr %6, align 8, !tbaa !9
  %11 = getelementptr inbounds nuw %"class.rocksdb::clock_cache::AutoHyperClockTable", ptr %8, i32 0, i32 3
  %12 = call noundef i64 @_ZNK7rocksdb13RelaxedAtomicImE11LoadRelaxedEv(ptr noundef nonnull align 8 dereferenceable(8) %11)
  %13 = icmp ugt i64 %10, %12
  %14 = zext i1 %13 to i64
  %15 = call i64 @llvm.expect.i64(i64 %14, i64 0)
  %16 = icmp ne i64 %15, 0
  br i1 %16, label %17, label %22

17:                                               ; preds = %9
  %18 = load ptr, ptr %7, align 8, !tbaa !236
  %19 = call noundef zeroext i1 @_ZN7rocksdb11clock_cache19AutoHyperClockTable4GrowERNS1_11InsertStateE(ptr noundef nonnull align 64 dereferenceable(208) %8, ptr noundef nonnull align 8 dereferenceable(16) %18)
  br i1 %19, label %21, label %20

20:                                               ; preds = %17
  store i1 false, ptr %4, align 1
  br label %23

21:                                               ; preds = %17
  br label %9, !llvm.loop !240

22:                                               ; preds = %9
  store i1 true, ptr %4, align 1
  br label %23

23:                                               ; preds = %22, %20
  %24 = load i1, ptr %4, align 1
  ret i1 %24
}