; Function Attrs: mustprogress nounwind uwtable
define noundef zeroext i1 @_ZN7rocksdb11clock_cache19AutoHyperClockTable12GrowIfNeededEmRNS1_11InsertStateE(ptr noundef nonnull align 64 captures(none) dereferenceable(208) %0, i64 noundef %1, ptr noundef nonnull writeonly align 8 captures(none) dereferenceable(16) %2) local_unnamed_addr #8 align 2 personality ptr @__gxx_personality_v0 {
  %4 = getelementptr inbounds nuw i8, ptr %0, i64 184
  br label %5

5:                                                ; preds = %7, %3
  %6 = load atomic i64, ptr %4 monotonic, align 8
  %.not.not.not.not.not = icmp ule i64 %1, %6
  br i1 %.not.not.not.not.not, label %9, label %7, !prof !23

7:                                                ; preds = %5
  %8 = tail call noundef zeroext i1 @_ZN7rocksdb11clock_cache19AutoHyperClockTable4GrowERNS1_11InsertStateE(ptr noundef nonnull align 64 dereferenceable(208) %0, ptr noundef nonnull align 8 dereferenceable(16) %2)
  br i1 %8, label %5, label %9, !llvm.loop !122

9:                                                ; preds = %5, %7
  ret i1 %.not.not.not.not.not
}